(lp0
(lp1
S'cd '
p2
aS'change current path to null'
p3
aa(lp4
S'touch'
p5
aS'make a file named null'
p6
aa(lp7
S'cp'
p8
aS'copy it to null'
p9
aa(lp10
S'mv'
p11
aS'move file with name null from null to null'
p12
aa(lp13
S'cd '
p14
aS'change path to null'
p15
aa(lp16
S'mv'
p17
aS'rename null to null'
p18
aa(lp19
S'cat'
p20
aS'show the content of null'
p21
aa(lp22
S'mkdir'
p23
aS'create directory named null'
p24
aa(lp25
S'mv'
p26
aS'move null into null'
p27
aa(lp28
S'rmdir'
p29
aS'remove the directory named null'
p30
aa(lp31
S'uncompress'
p32
aS'compress the directory null'
p33
aa(lp34
S'pwd'
p35
aS'i am in which directory'
p36
aa(lp37
S'pwd'
p38
aS'where am i'
p39
aa(lp40
S'ls'
p41
aS'list all the files'
p42
aa(lp43
S'ls'
p44
aS'which files i have in this folder'
p45
aa(lp46
S'ls'
p47
aS'show me all the files in this folder'
p48
aa(lp49
S'ls'
p50
aS'display all the files in this folder'
p51
aa(lp52
S'mkdir'
p53
aS'make a new directory'
p54
aa(lp55
S'mkdir'
p56
aS'generate a new folder'
p57
aa(lp58
S'rmdir'
p59
aS'delete this directory'
p60
aa(lp61
S'rmdir'
p62
aS'remove directory null'
p63
aa(lp64
S'clear'
p65
aS'clear the screen'
p66
aa(lp67
S'clear'
p68
aS'remove everything from screen'
p69
aa(lp70
S'man'
p71
aS'tell me about null'
p72
aa(lp73
S'man'
p74
aS'i want to know about null'
p75
aa(lp76
S'man'
p77
aS'what is null'
p78
aa(lp79
S'help'
p80
aS'help me'
p81
aa(lp82
S'help'
p83
aS'i am lost'
p84
aa(lp85
S'history'
p86
aS'past commands'
p87
aa(lp88
S'history'
p89
aS'show my history'
p90
aa(lp91
S'history'
p92
aS'previous instructions'
p93
aa(lp94
S'hostname'
p95
aS'display hostname'
p96
aa(lp97
S'hostname'
p98
aS'name of this machine'
p99
aa(lp100
S'who'
p101
aS'who are connected to this machine'
p102
aa(lp103
S'who'
p104
aS'display users'
p105
aa(lp106
S'passwd'
p107
aS'change login'
p108
aa(lp109
S'passwd'
p110
aS'change password'
p111
aa(lp112
S'tty'
p113
aS'teletype terminals'
p114
aa(lp115
S'wc'
p116
aS'number of words'
p117
aa(lp118
S'wc'
p119
aS'count the words'
p120
aa(lp121
S'id'
p122
aS'show user information'
p123
aa(lp124
S'whatis'
p125
aS'brief help'
p126
aa(lp127
S'whatis'
p128
aS'short description'
p129
aa(lp130
S'whoami'
p131
aS'display username'
p132
aa(lp133
S'cd'
p134
aS'change directory to null'
p135
aa(lp136
S'pwd'
p137
aS'print current directory'
p138
aa(lp139
S'ls'
p140
aS'list current files and directories'
p141
aa(lp142
S'mkdir'
p143
aS'make directory as null'
p144
aa(lp145
S'rmdir'
p146
aS'remove directory null'
p147
aa(lp148
S'touch'
p149
aS'create file'
p150
aa(lp151
S'touch'
p152
aS'make file'
p153
aa(lp154
S'cp'
p155
aS'copy file'
p156
aa(lp157
S'cp'
p158
aS'make a copy of current file'
p159
aa(lp160
S'mv'
p161
aS'move file'
p162
aa(lp163
S'mv'
p164
aS'move this file'
p165
aa(lp166
S'rm'
p167
aS'delete file'
p168
aa(lp169
S'rm'
p170
aS'remove file'
p171
aa(lp172
S'rm'
p173
aS'throw this file out'
p174
aa(lp175
S'rm'
p176
aS'erase this file'
p177
aa(lp178
S'cat'
p179
aS'show me contents of file'
p180
aa(lp181
S'cat'
p182
aS'let me read file'
p183
aa(lp184
S'cat'
p185
aS'what does this file say'
p186
aa(lp187
S'cat'
p188
aS'show me this file '
p189
aa(lp190
S'compress'
p191
aS'tar it'
p192
aa(lp193
S'compress'
p194
aS'zip it up'
p195
aa(lp196
S'compress'
p197
aS'compress and store'
p198
aa.