(lp0
(lp1
S'create a new file'
p2
aS'make file'
p3
aF4.6
aS'NEUTRAL'
p4
aa(lp5
S'create a new file'
p6
aS'create file named null'
p7
aF4.6
ag4
aa(lp8
S'copy files'
p9
aS'copy all files'
p10
aF4.6
ag4
aa(lp11
S'copy files'
p12
aS'copy file named null from null to null'
p13
aF4.6
ag4
aa(lp14
S'move or rename files or directories'
p15
aS'move files'
p16
aF4.6
ag4
aa(lp17
S'move or rename files or directories'
p18
aS'move folder'
p19
aF4.6
ag4
aa(lp20
S'move or rename files or directories'
p21
aS'rename files '
p22
aF4.6
ag4
aa(lp23
S'move or rename files or directories'
p24
aS'rename folders'
p25
aF4.6
ag4
aa(lp26
S'move or rename files or directories'
p27
aS'rename folder named null'
p28
aF4.6
ag4
aa(lp29
S'remove files'
p30
aS'delete files'
p31
aF4.6
ag4
aa(lp32
S'remove files'
p33
aS'delete file named null'
p34
aF4.6
ag4
aa(lp35
S'view complete file content'
p36
aS'display file content'
p37
aF4.6
ag4
aa(lp38
S'view file contents in sections determined by the size of the terminal'
p39
aS'display file content which fits the screen'
p40
aF4.6
ag4
aa(lp41
S'view file contents in sections determined by the size of the terminal'
p42
aS'display file content which fits the screen'
p43
aF4.6
ag4
aa(lp44
S'restores a compressed file'
p45
aS'decompress file'
p46
aF4.6
ag4
aa(lp47
S'restores a compressed file'
p48
aS'extract the file'
p49
aF4.6
ag4
aa(lp50
S'change directory'
p51
aS'inside folder'
p52
aF4.6
ag4
aa(lp53
S'change directory'
p54
aS'go to folder'
p55
aF4.6
ag4
aa(lp56
S'change directory'
p57
aS'go to directory'
p58
aF4.6
ag4
aa(lp59
S'change directory'
p60
aS'change directory to null'
p61
aF4.6
ag4
aa(lp62
S'print working directory on the terminal'
p63
aS'current path'
p64
aF4.6
ag4
aa(lp65
S'print working directory on the terminal'
p66
aS'current directory path'
p67
aF4.6
ag4
aa(lp68
S'list the content of a directory'
p69
aS'display content inside the folder'
p70
aF4.6
ag4
aa(lp71
S'create a new directory'
p72
aS'make folder'
p73
aF4.6
ag4
aa(lp74
S'create a new directory'
p75
aS'i want a folder'
p76
aF4.6
ag4
aa(lp77
S'create a new directory'
p78
aS'create folder'
p79
aF4.6
ag4
aa(lp80
S'create a new directory'
p81
aS'create folder named null'
p82
aF4.6
ag4
aa(lp83
S'remove a directory if its empty'
p84
aS'delete folder'
p85
aF4.6
ag4
aa(lp86
S'remove a directory if its empty'
p87
aS'delete directory'
p88
aF4.6
ag4
aa(lp89
S'remove a directory if its empty'
p90
aS'delete folder named null'
p91
aF4.6
ag4
aa(lp92
S'clears the terminal'
p93
aS'clean screen'
p94
aF4.6
ag4
aa(lp95
S'clears the terminal'
p96
aS'clear terminal'
p97
aF4.6
ag4
aa(lp98
S'write a string to standard output'
p99
aS'print the string'
p100
aF4.6
ag4
aa(lp101
S'displays the manual page for the selected command'
p102
aS'show man page'
p103
aF4.6
ag4
aa(lp104
S'displays the manual page for the selected command'
p105
aS'man page for command'
p106
aF4.6
ag4
aa(lp107
S'displays the manual page for the selected command'
p108
aS'show description for null'
p109
aF4.6
ag4
aa(lp110
S'opens the default web browser in the unix help web site'
p111
aS'open help page'
p112
aF4.6
ag4
aa(lp113
S'opens the default web browser in the unix help web site'
p114
aS'show help'
p115
aF4.6
ag4
aa(lp116
S'lists the commands typed during the session'
p117
aS'display last set of command typed'
p118
aF4.6
ag4
aa(lp119
S'lists the commands typed during the session'
p120
aS'last set of commands'
p121
aF4.6
ag4
aa(lp122
S'displays the computer or server name on the terminal'
p123
aS'display computer name'
p124
aF4.6
ag4
aa(lp125
S'displays the computer or server name on the terminal'
p126
aS'my computer name'
p127
aF4.6
ag4
aa(lp128
S'displays who is on the system'
p129
aS'what is my name'
p130
aF4.6
ag4
aa(lp131
S'displays who is on the system'
p132
aS'who am i'
p133
aF4.6
ag4
aa(lp134
S'counts and displays the number of lines words and characters of a file'
p135
aS'word count'
p136
aF4.6
ag4
aa(lp137
S'counts and displays the number of lines words and characters of a file'
p138
aS'line count'
p139
aF4.6
ag4
aa(lp140
S'counts and displays the number of lines words and characters of a file'
p141
aS'character count'
p142
aF4.6
ag4
aa(lp143
S'displays the command description'
p144
aS'show command description'
p145
aF4.6
ag4
aa(lp146
S'displays the command description'
p147
aS'command details'
p148
aF4.6
ag4
aa(lp149
S'displays the user id and the group id of the invoking user'
p150
aS'display uid'
p151
aF4.6
ag4
aa(lp152
S'displays the user id and the group id of the invoking user'
p153
aS'my user id'
p154
aF4.6
ag4
aa(lp155
S'displays users terminal name'
p156
aS'show terminal name'
p157
aF4.6
ag4
aa(lp158
S'displays users terminal name'
p159
aS'my terminal name'
p160
aF4.6
ag4
aa(lp161
S'change the password'
p162
aS'update password'
p163
aF4.6
ag4
aa(lp164
S'change the password'
p165
aS'reset password'
p166
aF4.6
ag4
aa(lp167
S'displays the amount of free and used disk space'
p168
aS'free space available'
p169
aF4.6
ag4
aa(lp170
S'displays the amount of free and used disk space'
p171
aS'disk space details'
p172
aF4.6
ag4
aa(lp173
S'displays the amount of disk usage'
p174
aS'how much disk is used'
p175
aF4.6
ag4
aa(lp176
S'displays the amount of disk usage'
p177
aS'disk storage details'
p178
aF4.6
ag4
aa(lp179
S'terminates a process'
p180
aS'force stop process'
p181
aF4.6
ag4
aa(lp182
S'terminates a process'
p183
aS'force stop program'
p184
aF4.6
ag4
aa(lp185
S'restarts process in the background'
p186
aS'run background process'
p187
aF4.6
ag4
aa(lp188
S'sends a job to the printer'
p189
aS'make a job for printer'
p190
aF4.6
ag4
aa(lp191
S'removes a job from the printer queue'
p192
aS'delete a job from printer queue'
p193
aF4.6
ag4
aa(lp194
S'removes a job from the printer queue'
p195
aS'remove a job from printer'
p196
aF4.6
ag4
aa(lp197
S'show all the environment variables'
p198
aS'display all environment variables'
p199
aF4.6
ag4
aa(lp200
S'creates a shortcut for a command or series of commands'
p201
aS'shortcut for a command'
p202
aF4.6
ag4
aa(lp203
S'removes value form the variable'
p204
aS'delete variable value'
p205
aF4.6
ag4
aa(lp206
S'removes value form the variable'
p207
aS'unset variable value'
p208
aF4.6
ag4
aa(lp209
S'change shell'
p210
aS'change working shell'
p211
aF4.6
ag4
aa.