(lp0
(lp1
S'create a new file'
p2
aS'make file'
p3
aF4.6
aS'NEUTRAL'
p4
aa(lp5
S'copy files'
p6
aS'copy all files'
p7
aF4.6
ag4
aa(lp8
S'move or rename files or directories'
p9
aS'move files'
p10
aF4.6
ag4
aa(lp11
S'move or rename files or directories'
p12
aS'move folder'
p13
aF4.6
ag4
aa(lp14
S'move or rename files or directories'
p15
aS'rename files '
p16
aF4.6
ag4
aa(lp17
S'move or rename files or directories'
p18
aS'rename folders'
p19
aF4.6
ag4
aa(lp20
S'remove files'
p21
aS'delete files'
p22
aF4.6
ag4
aa(lp23
S'view complete file content'
p24
aS'display file content'
p25
aF4.6
ag4
aa(lp26
S'view file contents in sections determined by the size of the terminal'
p27
aS'display file content which fits the screen'
p28
aF4.6
ag4
aa(lp29
S'view file contents in sections determined by the size of the terminal'
p30
aS'display file content which fits the screen'
p31
aF4.6
ag4
aa(lp32
S'restores a compressed file'
p33
aS'decompress file'
p34
aF4.6
ag4
aa(lp35
S'restores a compressed file'
p36
aS'extract the file'
p37
aF4.6
ag4
aa(lp38
S'change directory'
p39
aS'inside folder'
p40
aF4.6
ag4
aa(lp41
S'change directory'
p42
aS'go to folder'
p43
aF4.6
ag4
aa(lp44
S'change directory'
p45
aS'go to directory'
p46
aF4.6
ag4
aa(lp47
S'print working directory on the terminal'
p48
aS'current path'
p49
aF4.6
ag4
aa(lp50
S'print working directory on the terminal'
p51
aS'current directory path'
p52
aF4.6
ag4
aa(lp53
S'list the content of a directory'
p54
aS'display content inside the folder'
p55
aF4.6
ag4
aa(lp56
S'create a new directory'
p57
aS'make folder'
p58
aF4.6
ag4
aa(lp59
S'create a new directory'
p60
aS'i want a folder'
p61
aF4.6
ag4
aa(lp62
S'create a new directory'
p63
aS'create folder'
p64
aF4.6
ag4
aa(lp65
S'remove a directory if its empty'
p66
aS'delete folder'
p67
aF4.6
ag4
aa(lp68
S'remove a directory if its empty'
p69
aS'delete directory'
p70
aF4.6
ag4
aa(lp71
S'clears the terminal'
p72
aS'clean screen'
p73
aF4.6
ag4
aa(lp74
S'clears the terminal'
p75
aS'clear terminal'
p76
aF4.6
ag4
aa(lp77
S'write a string to standard output'
p78
aS'print the string'
p79
aF4.6
ag4
aa(lp80
S'displays the manual page for the selected command'
p81
aS'show man page'
p82
aF4.6
ag4
aa(lp83
S'displays the manual page for the selected command'
p84
aS'man page for command'
p85
aF4.6
ag4
aa(lp86
S'opens the default web browser in the unix help web site'
p87
aS'open help page'
p88
aF4.6
ag4
aa(lp89
S'opens the default web browser in the unix help web site'
p90
aS'show help'
p91
aF4.6
ag4
aa(lp92
S'lists the commands typed during the session'
p93
aS'display last set of command typed'
p94
aF4.6
ag4
aa(lp95
S'lists the commands typed during the session'
p96
aS'last set of commands'
p97
aF4.6
ag4
aa(lp98
S'displays the computer or server name on the terminal'
p99
aS'display computer name'
p100
aF4.6
ag4
aa(lp101
S'displays the computer or server name on the terminal'
p102
aS'my computer name'
p103
aF4.6
ag4
aa(lp104
S'displays who is on the system'
p105
aS'what is my name'
p106
aF4.6
ag4
aa(lp107
S'displays who is on the system'
p108
aS'who am i'
p109
aF4.6
ag4
aa(lp110
S'counts and displays the number of lines words and characters of a file'
p111
aS'word count'
p112
aF4.6
ag4
aa(lp113
S'counts and displays the number of lines words and characters of a file'
p114
aS'line count'
p115
aF4.6
ag4
aa(lp116
S'counts and displays the number of lines words and characters of a file'
p117
aS'character count'
p118
aF4.6
ag4
aa(lp119
S'displays the command description'
p120
aS'show command description'
p121
aF4.6
ag4
aa(lp122
S'displays the command description'
p123
aS'command details'
p124
aF4.6
ag4
aa(lp125
S'displays the user id and the group id of the invoking user'
p126
aS'display uid'
p127
aF4.6
ag4
aa(lp128
S'displays the user id and the group id of the invoking user'
p129
aS'my user id'
p130
aF4.6
ag4
aa(lp131
S'displays users terminal name'
p132
aS'show terminal name'
p133
aF4.6
ag4
aa(lp134
S'displays users terminal name'
p135
aS'my terminal name'
p136
aF4.6
ag4
aa(lp137
S'change the password'
p138
aS'update password'
p139
aF4.6
ag4
aa(lp140
S'change the password'
p141
aS'reset password'
p142
aF4.6
ag4
aa(lp143
S'displays the amount of free and used disk space'
p144
aS'free space available'
p145
aF4.6
ag4
aa(lp146
S'displays the amount of free and used disk space'
p147
aS'disk space details'
p148
aF4.6
ag4
aa(lp149
S'displays the amount of disk usage'
p150
aS'how much disk is used'
p151
aF4.6
ag4
aa(lp152
S'displays the amount of disk usage'
p153
aS'disk storage details'
p154
aF4.6
ag4
aa(lp155
S'terminates a process'
p156
aS'force stop process'
p157
aF4.6
ag4
aa(lp158
S'terminates a process'
p159
aS'force stop program'
p160
aF4.6
ag4
aa(lp161
S'restarts process in the background'
p162
aS'run background process'
p163
aF4.6
ag4
aa(lp164
S'sends a job to the printer'
p165
aS'make a job for printer'
p166
aF4.6
ag4
aa(lp167
S'removes a job from the printer queue'
p168
aS'delete a job from printer queue'
p169
aF4.6
ag4
aa(lp170
S'removes a job from the printer queue'
p171
aS'remove a job from printer'
p172
aF4.6
ag4
aa(lp173
S'show all the environment variables'
p174
aS'display all environment variables'
p175
aF4.6
ag4
aa(lp176
S'creates a shortcut for a command or series of commands'
p177
aS'shortcut for a command'
p178
aF4.6
ag4
aa(lp179
S'removes value form the variable'
p180
aS'delete variable value'
p181
aF4.6
ag4
aa(lp182
S'removes value form the variable'
p183
aS'unset variable value'
p184
aF4.6
ag4
aa(lp185
S'change shell'
p186
aS'change working shell'
p187
aF4.6
ag4
aa.